target datalayout = "e-m:e-p270:32:32-p271:32:32-p272:64:64-i64:64-i128:128-f80:128-n8:16:32:64-S128"
target triple = "x86_64-pc-linux-gnu"

%"class.std::unique_ptr" = type { %"struct.std::__uniq_ptr_data" }
%"struct.std::__uniq_ptr_data" = type { %"class.std::__uniq_ptr_impl" }
%"class.std::__uniq_ptr_impl" = type { %"class.std::tuple" }
%"class.std::tuple" = type { %"struct.std::_Tuple_impl" }
%"struct.std::_Tuple_impl" = type { %"struct.std::_Head_base.1" }
%"struct.std::_Head_base.1" = type { ptr }

@_ZN8LightGBM7Network13num_machines_E = thread_local global i32 1, align 4
@_ZN8LightGBM7Network5rank_E = thread_local global i32 0, align 4
@_ZN8LightGBM7Network8linkers_E = thread_local global { { { ptr } } } zeroinitializer, align 8
@_ZTHN8LightGBM7Network8linkers_E = alias void (), ptr @__tls_init

; Function Attrs: mustprogress nounwind uwtable
define linkonce_odr noundef nonnull align 8 dereferenceable(8) ptr @_ZNSt10_Head_baseILm0EPN8LightGBM7LinkersELb0EE7_M_headERKS3_(ptr noundef nonnull align 8 dereferenceable(8) %0) #4 comdat align 2 {
  %2 = alloca ptr, align 8
  store ptr %0, ptr %2, align 8, !tbaa !22
  %3 = load ptr, ptr %2, align 8, !tbaa !22
  %4 = getelementptr inbounds nuw %"struct.std::_Head_base.1", ptr %3, i32 0, i32 0
  ret ptr %4
}

; Function Attrs: mustprogress nounwind uwtable
define linkonce_odr noundef nonnull align 8 dereferenceable(8) ptr @_ZNSt11_Tuple_implILm0EJPN8LightGBM7LinkersESt14default_deleteIS1_EEE7_M_headERKS5_(ptr noundef nonnull align 8 dereferenceable(8) %0) #4 comdat align 2 {
  %2 = alloca ptr, align 8
  store ptr %0, ptr %2, align 8, !tbaa !20
  %3 = load ptr, ptr %2, align 8, !tbaa !20
  %4 = call noundef nonnull align 8 dereferenceable(8) ptr @_ZNSt10_Head_baseILm0EPN8LightGBM7LinkersELb0EE7_M_headERKS3_(ptr noundef nonnull align 8 dereferenceable(8) %3) #3
  ret ptr %4
}

; Function Attrs: mustprogress nounwind uwtable
define linkonce_odr noundef nonnull align 8 dereferenceable(8) ptr @_ZSt12__get_helperILm0EPN8LightGBM7LinkersEJSt14default_deleteIS1_EEERKT0_RKSt11_Tuple_implIXT_EJS5_DpT1_EE(ptr noundef nonnull align 8 dereferenceable(8) %0) #4 comdat {
  %2 = alloca ptr, align 8
  store ptr %0, ptr %2, align 8, !tbaa !20
  %3 = load ptr, ptr %2, align 8, !tbaa !20
  %4 = call noundef nonnull align 8 dereferenceable(8) ptr @_ZNSt11_Tuple_implILm0EJPN8LightGBM7LinkersESt14default_deleteIS1_EEE7_M_headERKS5_(ptr noundef nonnull align 8 dereferenceable(8) %3) #3
  ret ptr %4
}

; Function Attrs: mustprogress nounwind uwtable
define linkonce_odr noundef nonnull align 8 dereferenceable(8) ptr @_ZSt3getILm0EJPN8LightGBM7LinkersESt14default_deleteIS1_EEERKNSt13tuple_elementIXT_ESt5tupleIJDpT0_EEE4typeERKS9_(ptr noundef nonnull align 8 dereferenceable(8) %0) #4 comdat {
  %2 = alloca ptr, align 8
  store ptr %0, ptr %2, align 8, !tbaa !18
  %3 = load ptr, ptr %2, align 8, !tbaa !18
  %4 = call noundef nonnull align 8 dereferenceable(8) ptr @_ZSt12__get_helperILm0EPN8LightGBM7LinkersEJSt14default_deleteIS1_EEERKT0_RKSt11_Tuple_implIXT_EJS5_DpT1_EE(ptr noundef nonnull align 8 dereferenceable(8) %3) #3
  ret ptr %4
}

; Function Attrs: mustprogress nounwind uwtable
define linkonce_odr noundef ptr @_ZNKSt15__uniq_ptr_implIN8LightGBM7LinkersESt14default_deleteIS1_EE6_M_ptrEv(ptr noundef nonnull align 8 dereferenceable(8) %0) #4 comdat align 2 {
  %2 = alloca ptr, align 8
  store ptr %0, ptr %2, align 8, !tbaa !14
  %3 = load ptr, ptr %2, align 8
  %4 = getelementptr inbounds nuw %"class.std::__uniq_ptr_impl", ptr %3, i32 0, i32 0
  %5 = call noundef nonnull align 8 dereferenceable(8) ptr @_ZSt3getILm0EJPN8LightGBM7LinkersESt14default_deleteIS1_EEERKNSt13tuple_elementIXT_ESt5tupleIJDpT0_EEE4typeERKS9_(ptr noundef nonnull align 8 dereferenceable(8) %4) #3
  %6 = load ptr, ptr %5, align 8, !tbaa !12
  ret ptr %6
}

; Function Attrs: mustprogress nounwind uwtable
define linkonce_odr noundef ptr @_ZNKSt10unique_ptrIN8LightGBM7LinkersESt14default_deleteIS1_EE3getEv(ptr noundef nonnull align 8 dereferenceable(8) %0) #4 comdat align 2 {
  %2 = alloca ptr, align 8
  store ptr %0, ptr %2, align 8, !tbaa !4
  %3 = load ptr, ptr %2, align 8
  %4 = getelementptr inbounds nuw %"class.std::unique_ptr", ptr %3, i32 0, i32 0
  %5 = call noundef ptr @_ZNKSt15__uniq_ptr_implIN8LightGBM7LinkersESt14default_deleteIS1_EE6_M_ptrEv(ptr noundef nonnull align 8 dereferenceable(8) %4) #3
  ret ptr %5
}

; Function Attrs: mustprogress nounwind uwtable
define linkonce_odr noundef ptr @_ZNKSt10unique_ptrIN8LightGBM7LinkersESt14default_deleteIS1_EEptEv(ptr noundef nonnull align 8 dereferenceable(8) %0) #4 comdat align 2 {
  %2 = alloca ptr, align 8
  store ptr %0, ptr %2, align 8, !tbaa !4
  %3 = load ptr, ptr %2, align 8
  %4 = call noundef ptr @_ZNKSt10unique_ptrIN8LightGBM7LinkersESt14default_deleteIS1_EE3getEv(ptr noundef nonnull align 8 dereferenceable(8) %3) #3
  ret ptr %4
}

; Function Attrs: uwtable
define weak_odr hidden noundef ptr @_ZTWN8LightGBM7Network8linkers_E() #11 comdat {
  call void @_ZTHN8LightGBM7Network8linkers_E()
  %1 = call align 8 ptr @llvm.threadlocal.address.p0(ptr align 8 @_ZN8LightGBM7Network8linkers_E)
  ret ptr %1
}

; Function Attrs: mustprogress uwtable
define void @_ZN8LightGBM7Network13AllgatherRingEPcPKiS3_S1_i(ptr noundef %0, ptr noundef %1, ptr noundef %2, ptr noundef %3, i32 noundef %4) #10 align 2 {
  %6 = alloca ptr, align 8
  %7 = alloca ptr, align 8
  %8 = alloca ptr, align 8
  %9 = alloca ptr, align 8
  %10 = alloca i32, align 4
  %11 = alloca i32, align 4
  %12 = alloca i32, align 4
  %13 = alloca i32, align 4
  %14 = alloca i32, align 4
  %15 = alloca i32, align 4
  store ptr %0, ptr %6, align 8, !tbaa !65
  store ptr %1, ptr %7, align 8, !tbaa !36
  store ptr %2, ptr %8, align 8, !tbaa !36
  store ptr %3, ptr %9, align 8, !tbaa !65
  store i32 %4, ptr %10, align 4, !tbaa !104
  %16 = load ptr, ptr %9, align 8, !tbaa !65
  %17 = load ptr, ptr %7, align 8, !tbaa !36
  %18 = call align 4 ptr @llvm.threadlocal.address.p0(ptr align 4 @_ZN8LightGBM7Network5rank_E)
  %19 = load i32, ptr %18, align 4, !tbaa !104
  %20 = sext i32 %19 to i64
  %21 = getelementptr inbounds i32, ptr %17, i64 %20
  %22 = load i32, ptr %21, align 4, !tbaa !104
  %23 = sext i32 %22 to i64
  %24 = getelementptr inbounds i8, ptr %16, i64 %23
  %25 = load ptr, ptr %6, align 8, !tbaa !65
  %26 = load ptr, ptr %8, align 8, !tbaa !36
  %27 = call align 4 ptr @llvm.threadlocal.address.p0(ptr align 4 @_ZN8LightGBM7Network5rank_E)
  %28 = load i32, ptr %27, align 4, !tbaa !104
  %29 = sext i32 %28 to i64
  %30 = getelementptr inbounds i32, ptr %26, i64 %29
  %31 = load i32, ptr %30, align 4, !tbaa !104
  %32 = sext i32 %31 to i64
  call void @llvm.memcpy.p0.p0.i64(ptr align 1 %24, ptr align 1 %25, i64 %32, i1 false)
  call void @llvm.lifetime.start.p0(i64 4, ptr %11) #3
  %33 = call align 4 ptr @llvm.threadlocal.address.p0(ptr align 4 @_ZN8LightGBM7Network5rank_E)
  %34 = load i32, ptr %33, align 4, !tbaa !104
  %35 = add nsw i32 %34, 1
  %36 = call align 4 ptr @llvm.threadlocal.address.p0(ptr align 4 @_ZN8LightGBM7Network13num_machines_E)
  %37 = load i32, ptr %36, align 4, !tbaa !104
  %38 = srem i32 %35, %37
  store i32 %38, ptr %11, align 4, !tbaa !104
  call void @llvm.lifetime.start.p0(i64 4, ptr %12) #3
  %39 = call align 4 ptr @llvm.threadlocal.address.p0(ptr align 4 @_ZN8LightGBM7Network5rank_E)
  %40 = load i32, ptr %39, align 4, !tbaa !104
  %41 = sub nsw i32 %40, 1
  %42 = call align 4 ptr @llvm.threadlocal.address.p0(ptr align 4 @_ZN8LightGBM7Network13num_machines_E)
  %43 = load i32, ptr %42, align 4, !tbaa !104
  %44 = add nsw i32 %41, %43
  %45 = call align 4 ptr @llvm.threadlocal.address.p0(ptr align 4 @_ZN8LightGBM7Network13num_machines_E)
  %46 = load i32, ptr %45, align 4, !tbaa !104
  %47 = srem i32 %44, %46
  store i32 %47, ptr %12, align 4, !tbaa !104
  call void @llvm.lifetime.start.p0(i64 4, ptr %13) #3
  %48 = call align 4 ptr @llvm.threadlocal.address.p0(ptr align 4 @_ZN8LightGBM7Network5rank_E)
  %49 = load i32, ptr %48, align 4, !tbaa !104
  store i32 %49, ptr %13, align 4, !tbaa !104
  call void @llvm.lifetime.start.p0(i64 4, ptr %14) #3
  %50 = load i32, ptr %12, align 4, !tbaa !104
  store i32 %50, ptr %14, align 4, !tbaa !104
  call void @llvm.lifetime.start.p0(i64 4, ptr %15) #3
  store i32 1, ptr %15, align 4, !tbaa !104
  br label %51

51:                                               ; preds = %104, %5
  %52 = load i32, ptr %15, align 4, !tbaa !104
  %53 = call align 4 ptr @llvm.threadlocal.address.p0(ptr align 4 @_ZN8LightGBM7Network13num_machines_E)
  %54 = load i32, ptr %53, align 4, !tbaa !104
  %55 = icmp slt i32 %52, %54
  br i1 %55, label %57, label %56

56:                                               ; preds = %51
  call void @llvm.lifetime.end.p0(i64 4, ptr %15) #3
  br label %107

57:                                               ; preds = %51
  %58 = call ptr @_ZTWN8LightGBM7Network8linkers_E()
  %59 = call noundef ptr @_ZNKSt10unique_ptrIN8LightGBM7LinkersESt14default_deleteIS1_EEptEv(ptr noundef nonnull align 8 dereferenceable(8) %58) #3
  %60 = load i32, ptr %11, align 4, !tbaa !104
  %61 = load ptr, ptr %9, align 8, !tbaa !65
  %62 = load ptr, ptr %7, align 8, !tbaa !36
  %63 = load i32, ptr %13, align 4, !tbaa !104
  %64 = sext i32 %63 to i64
  %65 = getelementptr inbounds i32, ptr %62, i64 %64
  %66 = load i32, ptr %65, align 4, !tbaa !104
  %67 = sext i32 %66 to i64
  %68 = getelementptr inbounds i8, ptr %61, i64 %67
  %69 = load ptr, ptr %8, align 8, !tbaa !36
  %70 = load i32, ptr %13, align 4, !tbaa !104
  %71 = sext i32 %70 to i64
  %72 = getelementptr inbounds i32, ptr %69, i64 %71
  %73 = load i32, ptr %72, align 4, !tbaa !104
  %74 = load i32, ptr %12, align 4, !tbaa !104
  %75 = load ptr, ptr %9, align 8, !tbaa !65
  %76 = load ptr, ptr %7, align 8, !tbaa !36
  %77 = load i32, ptr %14, align 4, !tbaa !104
  %78 = sext i32 %77 to i64
  %79 = getelementptr inbounds i32, ptr %76, i64 %78
  %80 = load i32, ptr %79, align 4, !tbaa !104
  %81 = sext i32 %80 to i64
  %82 = getelementptr inbounds i8, ptr %75, i64 %81
  %83 = load ptr, ptr %8, align 8, !tbaa !36
  %84 = load i32, ptr %14, align 4, !tbaa !104
  %85 = sext i32 %84 to i64
  %86 = getelementptr inbounds i32, ptr %83, i64 %85
  %87 = load i32, ptr %86, align 4, !tbaa !104
  call void @_ZN8LightGBM7Linkers8SendRecvEiPciiS1_i(ptr noundef nonnull align 8 dereferenceable(304) %59, i32 noundef %60, ptr noundef %68, i32 noundef %73, i32 noundef %74, ptr noundef %82, i32 noundef %87)
  %88 = load i32, ptr %13, align 4, !tbaa !104
  %89 = sub nsw i32 %88, 1
  %90 = call align 4 ptr @llvm.threadlocal.address.p0(ptr align 4 @_ZN8LightGBM7Network13num_machines_E)
  %91 = load i32, ptr %90, align 4, !tbaa !104
  %92 = add nsw i32 %89, %91
  %93 = call align 4 ptr @llvm.threadlocal.address.p0(ptr align 4 @_ZN8LightGBM7Network13num_machines_E)
  %94 = load i32, ptr %93, align 4, !tbaa !104
  %95 = srem i32 %92, %94
  store i32 %95, ptr %13, align 4, !tbaa !104
  %96 = load i32, ptr %14, align 4, !tbaa !104
  %97 = sub nsw i32 %96, 1
  %98 = call align 4 ptr @llvm.threadlocal.address.p0(ptr align 4 @_ZN8LightGBM7Network13num_machines_E)
  %99 = load i32, ptr %98, align 4, !tbaa !104
  %100 = add nsw i32 %97, %99
  %101 = call align 4 ptr @llvm.threadlocal.address.p0(ptr align 4 @_ZN8LightGBM7Network13num_machines_E)
  %102 = load i32, ptr %101, align 4, !tbaa !104
  %103 = srem i32 %100, %102
  store i32 %103, ptr %14, align 4, !tbaa !104
  br label %104

104:                                              ; preds = %57
  %105 = load i32, ptr %15, align 4, !tbaa !104
  %106 = add nsw i32 %105, 1
  store i32 %106, ptr %15, align 4, !tbaa !104
  br label %51, !llvm.loop !328

107:                                              ; preds = %56
  call void @llvm.lifetime.end.p0(i64 4, ptr %14) #3
  call void @llvm.lifetime.end.p0(i64 4, ptr %13) #3
  call void @llvm.lifetime.end.p0(i64 4, ptr %12) #3
  call void @llvm.lifetime.end.p0(i64 4, ptr %11) #3
  ret void
}