; Function Attrs: uwtable
define void @_ZN8LightGBM7Network13AllgatherRingEPcPKiS3_S1_i(ptr noundef readonly captures(none) %0, ptr noundef readonly captures(none) %1, ptr noundef readonly captures(none) %2, ptr noundef %3, i32 noundef %4) local_unnamed_addr #11 align 2 {
  %6 = tail call align 4 ptr @llvm.threadlocal.address.p0(ptr align 4 @_ZN8LightGBM7Network5rank_E)
  %7 = load i32, ptr %6, align 4, !tbaa !69
  %8 = sext i32 %7 to i64
  %9 = getelementptr inbounds i32, ptr %1, i64 %8
  %10 = load i32, ptr %9, align 4, !tbaa !69
  %11 = sext i32 %10 to i64
  %12 = getelementptr inbounds i8, ptr %3, i64 %11
  %13 = getelementptr inbounds i32, ptr %2, i64 %8
  %14 = load i32, ptr %13, align 4, !tbaa !69
  %15 = sext i32 %14 to i64
  tail call void @llvm.memcpy.p0.p0.i64(ptr align 1 %12, ptr align 1 %0, i64 %15, i1 false)
  %16 = load i32, ptr %6, align 4, !tbaa !69
  %17 = add nsw i32 %16, 1
  %18 = tail call align 4 ptr @llvm.threadlocal.address.p0(ptr align 4 @_ZN8LightGBM7Network13num_machines_E)
  %19 = load i32, ptr %18, align 4, !tbaa !69
  %20 = srem i32 %17, %19
  %21 = add nsw i32 %16, -1
  %22 = add nsw i32 %21, %19
  %23 = srem i32 %22, %19
  %24 = icmp sgt i32 %19, 1
  br i1 %24, label %.lr.ph, label %._crit_edge

.lr.ph:                                           ; preds = %5
  %25 = tail call align 8 ptr @llvm.threadlocal.address.p0(ptr align 8 @_ZN8LightGBM7Network8linkers_E)
  br label %26

._crit_edge:                                      ; preds = %26, %5
  ret void

26:                                               ; preds = %.lr.ph, %26
  %.024 = phi i32 [ 1, %.lr.ph ], [ %49, %26 ]
  %.02023 = phi i32 [ %23, %.lr.ph ], [ %48, %26 ]
  %.02122 = phi i32 [ %16, %.lr.ph ], [ %45, %26 ]
  tail call void @_ZTHN8LightGBM7Network8linkers_E()
  %27 = load ptr, ptr %25, align 8, !tbaa !4
  %28 = sext i32 %.02122 to i64
  %29 = getelementptr inbounds i32, ptr %1, i64 %28
  %30 = load i32, ptr %29, align 4, !tbaa !69
  %31 = sext i32 %30 to i64
  %32 = getelementptr inbounds i8, ptr %3, i64 %31
  %33 = getelementptr inbounds i32, ptr %2, i64 %28
  %34 = load i32, ptr %33, align 4, !tbaa !69
  %35 = sext i32 %.02023 to i64
  %36 = getelementptr inbounds i32, ptr %1, i64 %35
  %37 = load i32, ptr %36, align 4, !tbaa !69
  %38 = sext i32 %37 to i64
  %39 = getelementptr inbounds i8, ptr %3, i64 %38
  %40 = getelementptr inbounds i32, ptr %2, i64 %35
  %41 = load i32, ptr %40, align 4, !tbaa !69
  tail call void @_ZN8LightGBM7Linkers8SendRecvEiPciiS1_i(ptr noundef nonnull align 8 dereferenceable(304) %27, i32 noundef %20, ptr noundef %32, i32 noundef %34, i32 noundef %23, ptr noundef %39, i32 noundef %41)
  %42 = add nsw i32 %.02122, -1
  %43 = load i32, ptr %18, align 4, !tbaa !69
  %44 = add nsw i32 %42, %43
  %45 = srem i32 %44, %43
  %46 = add nsw i32 %.02023, -1
  %47 = add nsw i32 %46, %43
  %48 = srem i32 %47, %43
  %49 = add nuw nsw i32 %.024, 1
  %50 = icmp slt i32 %49, %43
  br i1 %50, label %26, label %._crit_edge, !llvm.loop !133
}